target datalayout = "e-m:e-p270:32:32-p271:32:32-p272:64:64-i64:64-i128:128-f80:128-n8:16:32:64-S128"
target triple = "x86_64-pc-linux-gnu"

%struct._zval_struct = type { %union._zend_value, %union.anon, %union.anon.3 }
%union._zend_value = type { i64 }
%union.anon = type { i32 }
%union.anon.3 = type { i32 }
%struct._zend_refcounted_h = type { i32, %union.anon.4 }
%union.anon.4 = type { i32 }
%struct._zend_refcounted = type { %struct._zend_refcounted_h }

; Function Attrs: nounwind uwtable
define internal i32 @ct_eval_incdec(ptr noundef %0, i8 noundef zeroext %1, ptr noundef %2) #0 {
  %4 = alloca ptr, align 8
  %5 = alloca ptr, align 8
  %6 = alloca ptr, align 8
  %7 = alloca ptr, align 8
  %8 = alloca ptr, align 8
  %9 = alloca i32, align 4
  %10 = alloca ptr, align 8
  %11 = alloca i8, align 1
  %12 = alloca ptr, align 8
  %13 = alloca ptr, align 8
  %14 = alloca ptr, align 8
  %15 = alloca ptr, align 8
  %16 = alloca i32, align 4
  store ptr %0, ptr %10, align 8
  store i8 %1, ptr %11, align 1
  store ptr %2, ptr %12, align 8
  %17 = load ptr, ptr %12, align 8
  store ptr %17, ptr %5, align 8
  %18 = load ptr, ptr %5, align 8
  %19 = getelementptr inbounds %struct._zval_struct, ptr %18, i32 0, i32 1
  %20 = load i8, ptr %19, align 8
  %21 = zext i8 %20 to i32
  %22 = icmp ne i32 %21, 4
  br i1 %22, label %23, label %38

23:                                               ; preds = %3
  %24 = load ptr, ptr %12, align 8
  store ptr %24, ptr %6, align 8
  %25 = load ptr, ptr %6, align 8
  %26 = getelementptr inbounds %struct._zval_struct, ptr %25, i32 0, i32 1
  %27 = load i8, ptr %26, align 8
  %28 = zext i8 %27 to i32
  %29 = icmp ne i32 %28, 5
  br i1 %29, label %30, label %38

30:                                               ; preds = %23
  %31 = load ptr, ptr %12, align 8
  store ptr %31, ptr %7, align 8
  %32 = load ptr, ptr %7, align 8
  %33 = getelementptr inbounds %struct._zval_struct, ptr %32, i32 0, i32 1
  %34 = load i8, ptr %33, align 8
  %35 = zext i8 %34 to i32
  %36 = icmp ne i32 %35, 1
  br i1 %36, label %37, label %38

37:                                               ; preds = %30
  store i32 -1, ptr %9, align 4
  br label %98

38:                                               ; preds = %30, %23, %3
  br label %39

39:                                               ; preds = %38
  %40 = load ptr, ptr %10, align 8
  store ptr %40, ptr %13, align 8
  %41 = load ptr, ptr %12, align 8
  store ptr %41, ptr %14, align 8
  %42 = load ptr, ptr %14, align 8
  %43 = getelementptr inbounds %struct._zval_struct, ptr %42, i32 0, i32 0
  %44 = load ptr, ptr %43, align 8
  store ptr %44, ptr %15, align 8
  %45 = load ptr, ptr %14, align 8
  %46 = getelementptr inbounds %struct._zval_struct, ptr %45, i32 0, i32 1
  %47 = load i32, ptr %46, align 8
  store i32 %47, ptr %16, align 4
  br label %48

48:                                               ; preds = %39
  %49 = load ptr, ptr %15, align 8
  %50 = load ptr, ptr %13, align 8
  %51 = getelementptr inbounds %struct._zval_struct, ptr %50, i32 0, i32 0
  store ptr %49, ptr %51, align 8
  %52 = load i32, ptr %16, align 4
  %53 = load ptr, ptr %13, align 8
  %54 = getelementptr inbounds %struct._zval_struct, ptr %53, i32 0, i32 1
  store i32 %52, ptr %54, align 8
  br label %55

55:                                               ; preds = %48
  %56 = load i32, ptr %16, align 4
  %57 = and i32 %56, 65280
  %58 = icmp ne i32 %57, 0
  br i1 %58, label %59, label %65

59:                                               ; preds = %55
  %60 = load ptr, ptr %15, align 8
  %61 = getelementptr inbounds %struct._zend_refcounted, ptr %60, i32 0, i32 0
  store ptr %61, ptr %4, align 8
  %62 = load ptr, ptr %4, align 8
  %63 = load i32, ptr %62, align 4
  %64 = add i32 %63, 1
  store i32 %64, ptr %62, align 4
  br label %65

65:                                               ; preds = %59, %55
  br label %66

66:                                               ; preds = %65
  %67 = load i8, ptr %11, align 1
  %68 = zext i8 %67 to i32
  %69 = icmp eq i32 %68, 34
  br i1 %69, label %82, label %70

70:                                               ; preds = %66
  %71 = load i8, ptr %11, align 1
  %72 = zext i8 %71 to i32
  %73 = icmp eq i32 %72, 36
  br i1 %73, label %82, label %74

74:                                               ; preds = %70
  %75 = load i8, ptr %11, align 1
  %76 = zext i8 %75 to i32
  %77 = icmp eq i32 %76, 132
  br i1 %77, label %82, label %78

78:                                               ; preds = %74
  %79 = load i8, ptr %11, align 1
  %80 = zext i8 %79 to i32
  %81 = icmp eq i32 %80, 134
  br i1 %81, label %82, label %85

82:                                               ; preds = %78, %74, %70, %66
  %83 = load ptr, ptr %10, align 8
  %84 = call i32 @increment_function(ptr noundef %83)
  br label %97

85:                                               ; preds = %78
  %86 = load ptr, ptr %12, align 8
  store ptr %86, ptr %8, align 8
  %87 = load ptr, ptr %8, align 8
  %88 = getelementptr inbounds %struct._zval_struct, ptr %87, i32 0, i32 1
  %89 = load i8, ptr %88, align 8
  %90 = zext i8 %89 to i32
  %91 = icmp eq i32 %90, 1
  br i1 %91, label %92, label %94

92:                                               ; preds = %85
  %93 = load ptr, ptr %10, align 8
  call void @zval_ptr_dtor(ptr noundef %93)
  store i32 -1, ptr %9, align 4
  br label %98

94:                                               ; preds = %85
  %95 = load ptr, ptr %10, align 8
  %96 = call i32 @decrement_function(ptr noundef %95)
  br label %97

97:                                               ; preds = %94, %82
  store i32 0, ptr %9, align 4
  br label %98

98:                                               ; preds = %97, %92, %37
  %99 = load i32, ptr %9, align 4
  ret i32 %99
}