; Function Attrs: nounwind uwtable
define internal fastcc noundef i32 @ct_eval_incdec(ptr noundef %0, i8 noundef zeroext %1, ptr nocapture noundef readonly %2) unnamed_addr #0 {
  %4 = getelementptr inbounds i8, ptr %2, i64 8
  %5 = load i8, ptr %4, align 8
  switch i8 %5, label %23 [
    i8 4, label %6
    i8 5, label %6
    i8 1, label %6
  ]

6:                                                ; preds = %3, %3, %3
  %7 = load ptr, ptr %2, align 8
  %8 = load i32, ptr %4, align 8
  store ptr %7, ptr %0, align 8
  %9 = getelementptr inbounds i8, ptr %0, i64 8
  store i32 %8, ptr %9, align 8
  %10 = and i32 %8, 65280
  %.not37 = icmp eq i32 %10, 0
  br i1 %.not37, label %14, label %11

11:                                               ; preds = %6
  %12 = load i32, ptr %7, align 4
  %13 = add i32 %12, 1
  store i32 %13, ptr %7, align 4
  br label %14

14:                                               ; preds = %6, %11
  switch i8 %1, label %17 [
    i8 -122, label %15
    i8 -124, label %15
    i8 36, label %15
    i8 34, label %15
  ]

15:                                               ; preds = %14, %14, %14, %14
  %16 = tail call i32 @increment_function(ptr noundef nonnull %0) #13
  br label %23

17:                                               ; preds = %14
  %18 = load i8, ptr %4, align 8
  %19 = icmp eq i8 %18, 1
  br i1 %19, label %20, label %21

20:                                               ; preds = %17
  tail call void @zval_ptr_dtor(ptr noundef nonnull %0) #13
  br label %23

21:                                               ; preds = %17
  %22 = tail call i32 @decrement_function(ptr noundef nonnull %0) #13
  br label %23

23:                                               ; preds = %15, %21, %3, %20
  %.0 = phi i32 [ -1, %20 ], [ -1, %3 ], [ 0, %21 ], [ 0, %15 ]
  ret i32 %.0
}